target datalayout = "e-m:e-p270:32:32-p271:32:32-p272:64:64-i64:64-i128:128-f80:128-n8:16:32:64-S128"
target triple = "x86_64-unknown-linux-gnu"

%struct.NetClientInfo = type { i32, i64, ptr, ptr, ptr, ptr, ptr, ptr, ptr, ptr, ptr, ptr, ptr, ptr, ptr, ptr, ptr, ptr, ptr, ptr, ptr, ptr, ptr, ptr, ptr, ptr, ptr }
%struct.NetClientState = type { ptr, i32, %union.anon, ptr, ptr, ptr, ptr, [256 x i8], i8, ptr, i32, i8, i32, i32, i8, i8, i8, %union.anon.0 }
%union.anon = type { %struct.QTailQLink }
%struct.QTailQLink = type { ptr, ptr }
%union.anon.0 = type { %struct.QTailQLink }
%struct.VhostVDPAState = type { %struct.NetClientState, %struct.vhost_vdpa, %struct.Notifier, ptr, ptr, ptr, i8, i8, i8 }
%struct.vhost_vdpa = type { i32, i32, i32, i8, i32, %struct.MemoryListener, %struct.vhost_vdpa_iova_range, i64, i8, i8, i8, ptr, ptr, ptr, ptr, ptr, ptr, [1024 x %struct.VhostVDPAHostNotifier], %struct.anon, %struct.IOMMUNotifier }
%struct.MemoryListener = type { ptr, ptr, ptr, ptr, ptr, ptr, ptr, ptr, ptr, ptr, ptr, ptr, ptr, ptr, ptr, ptr, ptr, i32, ptr, ptr, %union.anon.1, %union.anon.2 }
%union.anon.1 = type { %struct.QTailQLink }
%union.anon.2 = type { %struct.QTailQLink }
%struct.vhost_vdpa_iova_range = type { i64, i64 }
%struct.VhostVDPAHostNotifier = type { %struct.MemoryRegion, ptr }
%struct.MemoryRegion = type { %struct.Object, i8, i8, i8, i8, i8, i8, i8, i8, i8, i8, ptr, ptr, ptr, ptr, ptr, ptr, i32, i128, i64, ptr, i64, i8, i8, i8, i8, i8, ptr, i64, i32, %union.anon.3, %union.anon.4, %union.anon.5, ptr, i32, ptr, ptr, i8 }
%struct.Object = type { ptr, ptr, ptr, i32, ptr }
%union.anon.3 = type { %struct.QTailQLink }
%union.anon.4 = type { %struct.QTailQLink }
%union.anon.5 = type { %struct.QTailQLink }
%struct.anon = type { ptr }
%struct.IOMMUNotifier = type { ptr, i32, i64, i64, i32, %struct.anon.6 }
%struct.anon.6 = type { ptr, ptr }
%struct.Notifier = type { ptr, %struct.anon.7 }
%struct.anon.7 = type { ptr, ptr }
%struct.MigrationState = type { %struct.DeviceState, %struct.QemuThread, ptr, ptr, ptr, ptr, %struct.QemuSemaphore, ptr, %struct.QemuMutex, %struct.QemuSemaphore, i64, double, i64, i64, i64, %struct.MigrationParameters, i32, %struct.anon.10, double, i64, i64, i64, i64, i64, [23 x i8], i64, i32, i8, i8, i8, i8, %struct.QemuSemaphore, %struct.QemuSemaphore, %struct.QemuSemaphore, %struct.QemuEvent, i64, ptr, ptr, %struct.QemuMutex, i8, i8, i8, i8, %struct.QemuSemaphore, i8, i8, i8, i8, ptr, ptr, i8, i8 }
%struct.DeviceState = type { %struct.Object, ptr, ptr, i8, i8, i64, ptr, i32, i8, ptr, %struct.NamedGPIOListHead, %struct.NamedClockListHead, %struct.BusStateHead, i32, i32, i32, %struct.ResettableState, ptr, %struct.MemReentrancyGuard }
%struct.NamedGPIOListHead = type { ptr }
%struct.NamedClockListHead = type { ptr }
%struct.BusStateHead = type { ptr }
%struct.ResettableState = type { i32, i8, i8 }
%struct.MemReentrancyGuard = type { i8 }
%struct.QemuThread = type { i64 }
%struct.MigrationParameters = type { i8, i64, i8, i64, i8, i64, i8, i64, i8, i8, i8, i8, i8, i8, i8, i8, i8, i8, i8, i8, i8, i8, i8, i8, ptr, ptr, ptr, i8, i64, i8, i64, i8, i64, i8, i32, i8, i8, i8, i8, i8, i64, i8, i64, i8, i8, i8, i32, i8, i8, i8, i8, i8, ptr, i8, i64, i8, i64, i8, i32 }
%struct.anon.10 = type { ptr, %struct.QemuThread, i8, %struct.QemuSemaphore, %struct.QemuSemaphore }
%struct.QemuEvent = type { i32, i8 }
%struct.QemuMutex = type { %union.pthread_mutex_t, i8 }
%union.pthread_mutex_t = type { %struct.__pthread_mutex_s }
%struct.__pthread_mutex_s = type { i32, i32, i32, i32, i32, i16, i16, %struct.__pthread_internal_list }
%struct.__pthread_internal_list = type { ptr, ptr }
%struct.QemuSemaphore = type { %struct.QemuMutex, %struct.QemuCond, i32 }
%struct.QemuCond = type { %union.pthread_cond_t, i8 }
%union.pthread_cond_t = type { %struct.__pthread_cond_s }
%struct.__pthread_cond_s = type { %union.__atomic_wide_counter, %union.__atomic_wide_counter, [2 x i32], [2 x i32], i32, i32, [2 x i32] }
%union.__atomic_wide_counter = type { i64 }
%struct.NICState = type { ptr, ptr, ptr, ptr, i8 }

@.str = private unnamed_addr constant [47 x i8] c"nc->info->type == NET_CLIENT_DRIVER_VHOST_VDPA\00", align 1
@.str.1 = private unnamed_addr constant [25 x i8] c"../qemu/net/vhost-vdpa.c\00", align 1
@__PRETTY_FUNCTION__.vhost_vdpa_net_data_start = private unnamed_addr constant [48 x i8] c"int vhost_vdpa_net_data_start(NetClientState *)\00", align 1

; Function Attrs: nounwind sspstrong uwtable
define internal ptr @vhost_vdpa_net_first_nc_vdpa(ptr noundef %s) #0 {
entry:
  %s.addr = alloca ptr, align 8
  %nic = alloca ptr, align 8
  %nc0 = alloca ptr, align 8
  %tmp = alloca ptr, align 8
  %__mptr = alloca ptr, align 8
  %tmp2 = alloca ptr, align 8
  store ptr %s, ptr %s.addr, align 8
  %0 = load ptr, ptr %s.addr, align 8
  %nc = getelementptr inbounds %struct.VhostVDPAState, ptr %0, i32 0, i32 0
  %peer = getelementptr inbounds %struct.NetClientState, ptr %nc, i32 0, i32 3
  %1 = load ptr, ptr %peer, align 16
  %call = call ptr @qemu_get_nic(ptr noundef %1)
  store ptr %call, ptr %nic, align 8
  %2 = load ptr, ptr %nic, align 8
  %ncs = getelementptr inbounds %struct.NICState, ptr %2, i32 0, i32 0
  %3 = load ptr, ptr %ncs, align 8
  %call1 = call ptr @qemu_get_peer(ptr noundef %3, i32 noundef 0)
  store ptr %call1, ptr %nc0, align 8
  %4 = load ptr, ptr %nc0, align 8
  store ptr %4, ptr %__mptr, align 8
  %5 = load ptr, ptr %__mptr, align 8
  %add.ptr = getelementptr i8, ptr %5, i64 0
  store ptr %add.ptr, ptr %tmp2, align 8
  %6 = load ptr, ptr %tmp2, align 8
  store ptr %6, ptr %tmp, align 8
  %7 = load ptr, ptr %tmp, align 8
  ret ptr %7
}

; Function Attrs: nounwind sspstrong uwtable
define internal void @vhost_vdpa_net_data_start_first(ptr noundef %s) #0 {
entry:
  %s.addr = alloca ptr, align 8
  %v = alloca ptr, align 8
  store ptr %s, ptr %s.addr, align 8
  %0 = load ptr, ptr %s.addr, align 8
  %vhost_vdpa = getelementptr inbounds %struct.VhostVDPAState, ptr %0, i32 0, i32 1
  store ptr %vhost_vdpa, ptr %v, align 8
  %1 = load ptr, ptr %s.addr, align 8
  %migration_state = getelementptr inbounds %struct.VhostVDPAState, ptr %1, i32 0, i32 2
  call void @migration_add_notifier(ptr noundef %migration_state, ptr noundef @vdpa_net_migration_state_notifier)
  %2 = load ptr, ptr %v, align 8
  %shadow_vqs_enabled = getelementptr inbounds %struct.vhost_vdpa, ptr %2, i32 0, i32 8
  %3 = load i8, ptr %shadow_vqs_enabled, align 16
  %tobool = trunc i8 %3 to i1
  br i1 %tobool, label %if.then, label %if.end

if.then:                                          ; preds = %entry
  %4 = load ptr, ptr %v, align 8
  %iova_range = getelementptr inbounds %struct.vhost_vdpa, ptr %4, i32 0, i32 6
  %first = getelementptr inbounds %struct.vhost_vdpa_iova_range, ptr %iova_range, i32 0, i32 0
  %5 = load i64, ptr %first, align 8
  %6 = load ptr, ptr %v, align 8
  %iova_range1 = getelementptr inbounds %struct.vhost_vdpa, ptr %6, i32 0, i32 6
  %last = getelementptr inbounds %struct.vhost_vdpa_iova_range, ptr %iova_range1, i32 0, i32 1
  %7 = load i64, ptr %last, align 8
  %call = call ptr @vhost_iova_tree_new(i64 noundef %5, i64 noundef %7)
  %8 = load ptr, ptr %v, align 8
  %iova_tree = getelementptr inbounds %struct.vhost_vdpa, ptr %8, i32 0, i32 11
  store ptr %call, ptr %iova_tree, align 8
  br label %if.end

if.end:                                           ; preds = %if.then, %entry
  ret void
}

; Function Attrs: nounwind sspstrong uwtable
define internal i32 @vhost_vdpa_net_data_start(ptr noundef %nc) #0 {
entry:
  %retval = alloca i32, align 4
  %nc.addr = alloca ptr, align 8
  %s = alloca ptr, align 8
  %tmp = alloca ptr, align 8
  %__mptr = alloca ptr, align 8
  %tmp1 = alloca ptr, align 8
  %v = alloca ptr, align 8
  %s0 = alloca ptr, align 8
  store ptr %nc, ptr %nc.addr, align 8
  %0 = load ptr, ptr %nc.addr, align 8
  store ptr %0, ptr %__mptr, align 8
  %1 = load ptr, ptr %__mptr, align 8
  %add.ptr = getelementptr i8, ptr %1, i64 0
  store ptr %add.ptr, ptr %tmp1, align 8
  %2 = load ptr, ptr %tmp1, align 8
  store ptr %2, ptr %tmp, align 8
  %3 = load ptr, ptr %tmp, align 8
  store ptr %3, ptr %s, align 8
  %4 = load ptr, ptr %s, align 8
  %vhost_vdpa = getelementptr inbounds %struct.VhostVDPAState, ptr %4, i32 0, i32 1
  store ptr %vhost_vdpa, ptr %v, align 8
  %5 = load ptr, ptr %nc.addr, align 8
  %info = getelementptr inbounds %struct.NetClientState, ptr %5, i32 0, i32 0
  %6 = load ptr, ptr %info, align 8
  %type = getelementptr inbounds %struct.NetClientInfo, ptr %6, i32 0, i32 0
  %7 = load i32, ptr %type, align 8
  %cmp = icmp eq i32 %7, 13
  br i1 %cmp, label %if.then, label %if.else

if.then:                                          ; preds = %entry
  br label %if.end

if.else:                                          ; preds = %entry
  call void @__assert_fail(ptr noundef @.str, ptr noundef @.str.1, i32 noundef 363, ptr noundef @__PRETTY_FUNCTION__.vhost_vdpa_net_data_start) #10
  unreachable

if.end:                                           ; preds = %if.then
  %8 = load ptr, ptr %s, align 8
  %always_svq = getelementptr inbounds %struct.VhostVDPAState, ptr %8, i32 0, i32 6
  %9 = load i8, ptr %always_svq, align 16
  %tobool = trunc i8 %9 to i1
  br i1 %tobool, label %if.then3, label %lor.lhs.false

lor.lhs.false:                                    ; preds = %if.end
  %call = call ptr @migrate_get_current()
  %state = getelementptr inbounds %struct.MigrationState, ptr %call, i32 0, i32 16
  %10 = load i32, ptr %state, align 8
  %call2 = call zeroext i1 @migration_is_setup_or_active(i32 noundef %10)
  br i1 %call2, label %if.then3, label %if.else4

if.then3:                                         ; preds = %lor.lhs.false, %if.end
  %11 = load ptr, ptr %v, align 8
  %shadow_vqs_enabled = getelementptr inbounds %struct.vhost_vdpa, ptr %11, i32 0, i32 8
  store i8 1, ptr %shadow_vqs_enabled, align 16
  %12 = load ptr, ptr %v, align 8
  %shadow_data = getelementptr inbounds %struct.vhost_vdpa, ptr %12, i32 0, i32 9
  store i8 1, ptr %shadow_data, align 1
  br label %if.end7

if.else4:                                         ; preds = %lor.lhs.false
  %13 = load ptr, ptr %v, align 8
  %shadow_vqs_enabled5 = getelementptr inbounds %struct.vhost_vdpa, ptr %13, i32 0, i32 8
  store i8 0, ptr %shadow_vqs_enabled5, align 16
  %14 = load ptr, ptr %v, align 8
  %shadow_data6 = getelementptr inbounds %struct.vhost_vdpa, ptr %14, i32 0, i32 9
  store i8 0, ptr %shadow_data6, align 1
  br label %if.end7

if.end7:                                          ; preds = %if.else4, %if.then3
  %15 = load ptr, ptr %v, align 8
  %index = getelementptr inbounds %struct.vhost_vdpa, ptr %15, i32 0, i32 1
  %16 = load i32, ptr %index, align 4
  %cmp8 = icmp eq i32 %16, 0
  br i1 %cmp8, label %if.then9, label %if.end10

if.then9:                                         ; preds = %if.end7
  %17 = load ptr, ptr %s, align 8
  call void @vhost_vdpa_net_data_start_first(ptr noundef %17)
  store i32 0, ptr %retval, align 4
  br label %return

if.end10:                                         ; preds = %if.end7
  %18 = load ptr, ptr %v, align 8
  %shadow_vqs_enabled11 = getelementptr inbounds %struct.vhost_vdpa, ptr %18, i32 0, i32 8
  %19 = load i8, ptr %shadow_vqs_enabled11, align 16
  %tobool12 = trunc i8 %19 to i1
  br i1 %tobool12, label %if.then13, label %if.end17

if.then13:                                        ; preds = %if.end10
  %20 = load ptr, ptr %s, align 8
  %call14 = call ptr @vhost_vdpa_net_first_nc_vdpa(ptr noundef %20)
  store ptr %call14, ptr %s0, align 8
  %21 = load ptr, ptr %s0, align 8
  %vhost_vdpa15 = getelementptr inbounds %struct.VhostVDPAState, ptr %21, i32 0, i32 1
  %iova_tree = getelementptr inbounds %struct.vhost_vdpa, ptr %vhost_vdpa15, i32 0, i32 11
  %22 = load ptr, ptr %iova_tree, align 8
  %23 = load ptr, ptr %v, align 8
  %iova_tree16 = getelementptr inbounds %struct.vhost_vdpa, ptr %23, i32 0, i32 11
  store ptr %22, ptr %iova_tree16, align 8
  br label %if.end17

if.end17:                                         ; preds = %if.then13, %if.end10
  store i32 0, ptr %retval, align 4
  br label %return

return:                                           ; preds = %if.end17, %if.then9
  %24 = load i32, ptr %retval, align 4
  ret i32 %24
}