; Function Attrs: nounwind sspstrong uwtable
define internal noundef i32 @vhost_vdpa_net_data_start(ptr noundef %nc) #0 {
entry:
  %0 = load ptr, ptr %nc, align 8
  %1 = load i32, ptr %0, align 8
  %cmp = icmp eq i32 %1, 13
  br i1 %cmp, label %if.end, label %if.else

if.else:                                          ; preds = %entry
  tail call void @__assert_fail(ptr noundef nonnull @.str, ptr noundef nonnull @.str.1, i32 noundef 363, ptr noundef nonnull @__PRETTY_FUNCTION__.vhost_vdpa_net_data_start) #12
  unreachable

if.end:                                           ; preds = %entry
  %always_svq = getelementptr inbounds nuw i8, ptr %nc, i64 295712
  %2 = load i8, ptr %always_svq, align 16
  %tobool = trunc i8 %2 to i1
  br i1 %tobool, label %if.end7, label %lor.lhs.false

lor.lhs.false:                                    ; preds = %if.end
  %call = tail call ptr @migrate_get_current() #13
  %state = getelementptr inbounds nuw i8, ptr %call, i64 776
  %3 = load i32, ptr %state, align 8
  %call2 = tail call zeroext i1 @migration_is_setup_or_active(i32 noundef %3) #13
  br i1 %call2, label %if.end7, label %if.end7.thread

if.end7:                                          ; preds = %if.end, %lor.lhs.false
  %shadow_vqs_enabled = getelementptr inbounds nuw i8, ptr %nc, i64 624
  store i8 1, ptr %shadow_vqs_enabled, align 16
  %shadow_data = getelementptr inbounds nuw i8, ptr %nc, i64 625
  store i8 1, ptr %shadow_data, align 1
  %index = getelementptr inbounds nuw i8, ptr %nc, i64 388
  %4 = load i32, ptr %index, align 4
  %cmp8 = icmp eq i32 %4, 0
  br i1 %cmp8, label %if.then9, label %if.then13

if.end7.thread:                                   ; preds = %lor.lhs.false
  %shadow_vqs_enabled5 = getelementptr inbounds nuw i8, ptr %nc, i64 624
  store i8 0, ptr %shadow_vqs_enabled5, align 16
  %shadow_data6 = getelementptr inbounds nuw i8, ptr %nc, i64 625
  store i8 0, ptr %shadow_data6, align 1
  %index13 = getelementptr inbounds nuw i8, ptr %nc, i64 388
  %5 = load i32, ptr %index13, align 4
  %cmp814 = icmp eq i32 %5, 0
  br i1 %cmp814, label %if.then9, label %return

if.then9:                                         ; preds = %if.end7.thread, %if.end7
  %migration_state.i = getelementptr inbounds nuw i8, ptr %nc, i64 295664
  tail call void @migration_add_notifier(ptr noundef nonnull %migration_state.i, ptr noundef nonnull @vdpa_net_migration_state_notifier) #13
  %shadow_vqs_enabled.i = getelementptr inbounds nuw i8, ptr %nc, i64 624
  %6 = load i8, ptr %shadow_vqs_enabled.i, align 16
  %tobool.i = trunc i8 %6 to i1
  br i1 %tobool.i, label %if.then.i, label %return

if.then.i:                                        ; preds = %if.then9
  %iova_range.i = getelementptr inbounds nuw i8, ptr %nc, i64 600
  %7 = load i64, ptr %iova_range.i, align 8
  %last.i = getelementptr inbounds nuw i8, ptr %nc, i64 608
  %8 = load i64, ptr %last.i, align 8
  %call.i = tail call ptr @vhost_iova_tree_new(i64 noundef %7, i64 noundef %8) #13
  br label %return.sink.split

if.then13:                                        ; preds = %if.end7
  %9 = getelementptr i8, ptr %nc, i64 32
  %nc.val = load ptr, ptr %9, align 16
  %call.i11 = tail call ptr @qemu_get_nic(ptr noundef %nc.val) #13
  %10 = load ptr, ptr %call.i11, align 8
  %call1.i = tail call ptr @qemu_get_peer(ptr noundef %10, i32 noundef 0) #13
  %iova_tree = getelementptr inbounds nuw i8, ptr %call1.i, i64 632
  %11 = load ptr, ptr %iova_tree, align 8
  br label %return.sink.split

return.sink.split:                                ; preds = %if.then13, %if.then.i
  %call.i.sink = phi ptr [ %call.i, %if.then.i ], [ %11, %if.then13 ]
  %iova_tree.i = getelementptr inbounds nuw i8, ptr %nc, i64 632
  store ptr %call.i.sink, ptr %iova_tree.i, align 8
  br label %return

return:                                           ; preds = %return.sink.split, %if.end7.thread, %if.then9
  ret i32 0
}